target datalayout = "e-m:e-p270:32:32-p271:32:32-p272:64:64-i64:64-i128:128-f80:128-n8:16:32:64-S128"
target triple = "x86_64-pc-linux-gnu"

; Function Attrs: nounwind willreturn memory(none) uwtable
define i32 @h5tools_can_encode(i32 noundef %0) #4 {
  %2 = alloca i32, align 4
  %3 = alloca i32, align 4
  store i32 %0, ptr %2, align 4, !tbaa !10
  call void @llvm.lifetime.start.p0(i64 4, ptr %3) #5
  store i32 1, ptr %3, align 4, !tbaa !10
  %4 = load i32, ptr %2, align 4, !tbaa !10
  switch i32 %4, label %5 [
    i32 1, label %9
    i32 4, label %13
    i32 2, label %17
    i32 3, label %17
    i32 5, label %17
    i32 6, label %17
  ]

5:                                                ; preds = %1
  br label %6

6:                                                ; preds = %5
  store i32 0, ptr %3, align 4, !tbaa !10
  br label %18

7:                                                ; No predecessors!
  br label %8

8:                                                ; preds = %7
  br label %17

9:                                                ; preds = %1
  br label %10

10:                                               ; preds = %9
  store i32 0, ptr %3, align 4, !tbaa !10
  br label %18

11:                                               ; No predecessors!
  br label %12

12:                                               ; preds = %11
  br label %17

13:                                               ; preds = %1
  br label %14

14:                                               ; preds = %13
  store i32 0, ptr %3, align 4, !tbaa !10
  br label %18

15:                                               ; No predecessors!
  br label %16

16:                                               ; preds = %15
  br label %17

17:                                               ; preds = %1, %1, %1, %1, %16, %12, %8
  br label %18

18:                                               ; preds = %17, %14, %10, %6
  %19 = load i32, ptr %3, align 4, !tbaa !10
  call void @llvm.lifetime.end.p0(i64 4, ptr %3) #5
  ret i32 %19
}